(dp1
V5271
p2
(lp3
F18
aF22
aF97
aF98
asV5838
p4
(lp5
F22
aF65
aF87
aF0
asV1584
p6
(lp7
F1
aF56
aF4
aF98
asV5456
p8
(lp9
F87
aF98
aF85
aF2
asV5807
p10
(lp11
F16
aF0
aF85
aF0
asV4603
p12
(lp13
F29
aF56
aF34
aF2
as.