(dp1
Vnew_york
p2
(lp3
I95
aI0
aI0
aI0
aI0
aI0
aI0
aI0
aI0
asV5_star
p4
(lp5
I0
aI0
aI0
aI0
aI0
aI0
aI0
aI85
aI0
asV5271
p6
(lp7
I0
aI0
aI0
aF18
aF22
aF97
aF98
aI0
aI0
asVsalad
p8
(lp9
I0
aI0
aI95
aI0
aI0
aI0
aI0
aI0
aI0
asVred_hot
p10
(lp11
I0
aI65
aI0
aI0
aI0
aI0
aI0
aI0
aI0
asVmow_lawn
p12
(lp13
I0
aI0
aI0
aI0
aI0
aI0
aI0
aI0
aI65
asVpotatoes
p14
(lp15
I0
aI0
aI55
aI0
aI0
aI0
aI0
aI0
aI0
asV5838
p16
(lp17
I0
aI0
aI0
aF22
aF65
aF87
aF0
aI0
aI0
asVchocolate
p18
(lp19
I0
aI0
aI25
aI0
aI0
aI0
aI0
aI0
aI0
asVsan_fran
p20
(lp21
I75
aI0
aI0
aI0
aI0
aI0
aI0
aI0
aI0
asVhipster
p22
(lp23
I0
aI10
aI0
aI0
aI0
aI0
aI0
aI0
aI0
asV1584
p24
(lp25
I0
aI0
aI0
aF1
aF56
aF4
aF98
aI0
aI0
asV5456
p26
(lp27
I0
aI0
aI0
aF87
aF98
aF85
aF2
aI0
aI0
asVport_huron
p28
(lp29
I25
aI0
aI0
aI0
aI0
aI0
aI0
aI0
aI0
asVarkansas
p30
(lp31
I10
aI0
aI0
aI0
aI0
aI0
aI0
aI0
aI0
asVclean_pool
p32
(lp33
I0
aI0
aI0
aI0
aI0
aI0
aI0
aI0
aI85
asV5807
p34
(lp35
I0
aI0
aI0
aF16
aF0
aF85
aF0
aI0
aI0
asV4603
p36
(lp37
I0
aI0
aI0
aF29
aF56
aF34
aF2
aI0
aI0
asVdiner
p38
(lp39
I0
aI0
aI0
aI0
aI0
aI0
aI0
aI15
aI0
as.